; ModuleID = '21/717.c'
source_filename = "21/717.c"
target datalayout = "e-m:e-p270:32:32-p271:32:32-p272:64:64-i64:64-f80:128-n8:16:32:64-S128"
target triple = "x86_64-pc-linux-gnu"

@.str = private unnamed_addr constant [3 x i8] c"%d\00", align 1
@.str.1 = private unnamed_addr constant [4 x i8] c",%d\00", align 1

; Function Attrs: noinline nounwind uwtable
define dso_local void @main() #0 {
  %1 = alloca [300 x i32], align 16
  %2 = alloca i32, align 4
  %3 = alloca i32, align 4
  %4 = alloca i32, align 4
  %5 = alloca i32, align 4
  %6 = alloca i32, align 4
  %7 = alloca i32, align 4
  %8 = alloca i32, align 4
  %9 = call i32 (i8*, ...) @__isoc99_scanf(i8* getelementptr inbounds ([3 x i8], [3 x i8]* @.str, i64 0, i64 0), i32* %5)
  store i32 0, i32* %2, align 4
  br label %10

10:                                               ; preds = %19, %0
  %11 = load i32, i32* %2, align 4
  %12 = load i32, i32* %5, align 4
  %13 = icmp slt i32 %11, %12
  br i1 %13, label %14, label %22

14:                                               ; preds = %10
  %15 = load i32, i32* %2, align 4
  %16 = sext i32 %15 to i64
  %17 = getelementptr inbounds [300 x i32], [300 x i32]* %1, i64 0, i64 %16
  %18 = call i32 (i8*, ...) @__isoc99_scanf(i8* getelementptr inbounds ([3 x i8], [3 x i8]* @.str, i64 0, i64 0), i32* %17)
  br label %19

19:                                               ; preds = %14
  %20 = load i32, i32* %2, align 4
  %21 = add nsw i32 %20, 1
  store i32 %21, i32* %2, align 4
  br label %10

22:                                               ; preds = %10
  store i32 0, i32* %2, align 4
  br label %23

23:                                               ; preds = %82, %22
  %24 = load i32, i32* %2, align 4
  %25 = load i32, i32* %5, align 4
  %26 = sub nsw i32 %25, 1
  %27 = icmp slt i32 %24, %26
  br i1 %27, label %28, label %85

28:                                               ; preds = %23
  store i32 0, i32* %3, align 4
  br label %29

29:                                               ; preds = %78, %28
  %30 = load i32, i32* %3, align 4
  %31 = load i32, i32* %5, align 4
  %32 = sub nsw i32 %31, 1
  %33 = load i32, i32* %2, align 4
  %34 = sub nsw i32 %32, %33
  %35 = icmp slt i32 %30, %34
  br i1 %35, label %36, label %81

36:                                               ; preds = %29
  %37 = load i32, i32* %2, align 4
  %38 = load i32, i32* %3, align 4
  %39 = add nsw i32 %37, %38
  %40 = sext i32 %39 to i64
  %41 = getelementptr inbounds [300 x i32], [300 x i32]* %1, i64 0, i64 %40
  %42 = load i32, i32* %41, align 4
  %43 = load i32, i32* %2, align 4
  %44 = load i32, i32* %3, align 4
  %45 = add nsw i32 %43, %44
  %46 = add nsw i32 %45, 1
  %47 = sext i32 %46 to i64
  %48 = getelementptr inbounds [300 x i32], [300 x i32]* %1, i64 0, i64 %47
  %49 = load i32, i32* %48, align 4
  %50 = icmp sgt i32 %42, %49
  br i1 %50, label %51, label %77

51:                                               ; preds = %36
  %52 = load i32, i32* %2, align 4
  %53 = load i32, i32* %3, align 4
  %54 = add nsw i32 %52, %53
  %55 = sext i32 %54 to i64
  %56 = getelementptr inbounds [300 x i32], [300 x i32]* %1, i64 0, i64 %55
  %57 = load i32, i32* %56, align 4
  store i32 %57, i32* %4, align 4
  %58 = load i32, i32* %2, align 4
  %59 = load i32, i32* %3, align 4
  %60 = add nsw i32 %58, %59
  %61 = add nsw i32 %60, 1
  %62 = sext i32 %61 to i64
  %63 = getelementptr inbounds [300 x i32], [300 x i32]* %1, i64 0, i64 %62
  %64 = load i32, i32* %63, align 4
  %65 = load i32, i32* %2, align 4
  %66 = load i32, i32* %3, align 4
  %67 = add nsw i32 %65, %66
  %68 = sext i32 %67 to i64
  %69 = getelementptr inbounds [300 x i32], [300 x i32]* %1, i64 0, i64 %68
  store i32 %64, i32* %69, align 4
  %70 = load i32, i32* %4, align 4
  %71 = load i32, i32* %2, align 4
  %72 = load i32, i32* %3, align 4
  %73 = add nsw i32 %71, %72
  %74 = add nsw i32 %73, 1
  %75 = sext i32 %74 to i64
  %76 = getelementptr inbounds [300 x i32], [300 x i32]* %1, i64 0, i64 %75
  store i32 %70, i32* %76, align 4
  br label %77

77:                                               ; preds = %51, %36
  br label %78

78:                                               ; preds = %77
  %79 = load i32, i32* %3, align 4
  %80 = add nsw i32 %79, 1
  store i32 %80, i32* %3, align 4
  br label %29

81:                                               ; preds = %29
  br label %82

82:                                               ; preds = %81
  %83 = load i32, i32* %2, align 4
  %84 = add nsw i32 %83, 1
  store i32 %84, i32* %2, align 4
  br label %23

85:                                               ; preds = %23
  store i32 0, i32* %2, align 4
  store i32 0, i32* %6, align 4
  br label %86

86:                                               ; preds = %97, %85
  %87 = load i32, i32* %2, align 4
  %88 = load i32, i32* %5, align 4
  %89 = icmp slt i32 %87, %88
  br i1 %89, label %90, label %100

90:                                               ; preds = %86
  %91 = load i32, i32* %6, align 4
  %92 = load i32, i32* %2, align 4
  %93 = sext i32 %92 to i64
  %94 = getelementptr inbounds [300 x i32], [300 x i32]* %1, i64 0, i64 %93
  %95 = load i32, i32* %94, align 4
  %96 = add nsw i32 %91, %95
  store i32 %96, i32* %6, align 4
  br label %97

97:                                               ; preds = %90
  %98 = load i32, i32* %2, align 4
  %99 = add nsw i32 %98, 1
  store i32 %99, i32* %2, align 4
  br label %86

100:                                              ; preds = %86
  store i32 0, i32* %2, align 4
  store i32 0, i32* %7, align 4
  br label %101

101:                                              ; preds = %128, %100
  %102 = load i32, i32* %2, align 4
  %103 = load i32, i32* %5, align 4
  %104 = icmp slt i32 %102, %103
  br i1 %104, label %105, label %131

105:                                              ; preds = %101
  %106 = load i32, i32* %2, align 4
  %107 = sext i32 %106 to i64
  %108 = getelementptr inbounds [300 x i32], [300 x i32]* %1, i64 0, i64 %107
  %109 = load i32, i32* %108, align 4
  %110 = load i32, i32* %5, align 4
  %111 = mul nsw i32 %109, %110
  %112 = load i32, i32* %6, align 4
  %113 = sub nsw i32 %111, %112
  %114 = call i32 @abs(i32 %113) #3
  %115 = load i32, i32* %7, align 4
  %116 = icmp sgt i32 %114, %115
  br i1 %116, label %117, label %127

117:                                              ; preds = %105
  %118 = load i32, i32* %2, align 4
  %119 = sext i32 %118 to i64
  %120 = getelementptr inbounds [300 x i32], [300 x i32]* %1, i64 0, i64 %119
  %121 = load i32, i32* %120, align 4
  %122 = load i32, i32* %5, align 4
  %123 = mul nsw i32 %121, %122
  %124 = load i32, i32* %6, align 4
  %125 = sub nsw i32 %123, %124
  %126 = call i32 @abs(i32 %125) #3
  store i32 %126, i32* %7, align 4
  br label %127

127:                                              ; preds = %117, %105
  br label %128

128:                                              ; preds = %127
  %129 = load i32, i32* %2, align 4
  %130 = add nsw i32 %129, 1
  store i32 %130, i32* %2, align 4
  br label %101

131:                                              ; preds = %101
  store i32 0, i32* %2, align 4
  store i32 0, i32* %8, align 4
  br label %132

132:                                              ; preds = %180, %131
  %133 = load i32, i32* %2, align 4
  %134 = load i32, i32* %5, align 4
  %135 = icmp slt i32 %133, %134
  br i1 %135, label %136, label %183

136:                                              ; preds = %132
  %137 = load i32, i32* %2, align 4
  %138 = sext i32 %137 to i64
  %139 = getelementptr inbounds [300 x i32], [300 x i32]* %1, i64 0, i64 %138
  %140 = load i32, i32* %139, align 4
  %141 = load i32, i32* %5, align 4
  %142 = mul nsw i32 %140, %141
  %143 = load i32, i32* %6, align 4
  %144 = sub nsw i32 %142, %143
  %145 = call i32 @abs(i32 %144) #3
  %146 = load i32, i32* %7, align 4
  %147 = icmp eq i32 %145, %146
  br i1 %147, label %148, label %157

148:                                              ; preds = %136
  %149 = load i32, i32* %8, align 4
  %150 = icmp eq i32 %149, 0
  br i1 %150, label %151, label %157

151:                                              ; preds = %148
  %152 = load i32, i32* %2, align 4
  %153 = sext i32 %152 to i64
  %154 = getelementptr inbounds [300 x i32], [300 x i32]* %1, i64 0, i64 %153
  %155 = load i32, i32* %154, align 4
  %156 = call i32 (i8*, ...) @printf(i8* getelementptr inbounds ([3 x i8], [3 x i8]* @.str, i64 0, i64 0), i32 %155)
  store i32 1, i32* %8, align 4
  br label %179

157:                                              ; preds = %148, %136
  %158 = load i32, i32* %2, align 4
  %159 = sext i32 %158 to i64
  %160 = getelementptr inbounds [300 x i32], [300 x i32]* %1, i64 0, i64 %159
  %161 = load i32, i32* %160, align 4
  %162 = load i32, i32* %5, align 4
  %163 = mul nsw i32 %161, %162
  %164 = load i32, i32* %6, align 4
  %165 = sub nsw i32 %163, %164
  %166 = call i32 @abs(i32 %165) #3
  %167 = load i32, i32* %7, align 4
  %168 = icmp eq i32 %166, %167
  br i1 %168, label %169, label %178

169:                                              ; preds = %157
  %170 = load i32, i32* %8, align 4
  %171 = icmp ne i32 %170, 0
  br i1 %171, label %172, label %178

172:                                              ; preds = %169
  %173 = load i32, i32* %2, align 4
  %174 = sext i32 %173 to i64
  %175 = getelementptr inbounds [300 x i32], [300 x i32]* %1, i64 0, i64 %174
  %176 = load i32, i32* %175, align 4
  %177 = call i32 (i8*, ...) @printf(i8* getelementptr inbounds ([4 x i8], [4 x i8]* @.str.1, i64 0, i64 0), i32 %176)
  br label %178

178:                                              ; preds = %172, %169, %157
  br label %179

179:                                              ; preds = %178, %151
  br label %180

180:                                              ; preds = %179
  %181 = load i32, i32* %2, align 4
  %182 = add nsw i32 %181, 1
  store i32 %182, i32* %2, align 4
  br label %132

183:                                              ; preds = %132
  ret void
}

declare dso_local i32 @__isoc99_scanf(i8*, ...) #1

; Function Attrs: nounwind readnone
declare dso_local i32 @abs(i32) #2

declare dso_local i32 @printf(i8*, ...) #1


!llvm.module.flags = !{!0}
!llvm.ident = !{!1}

!0 = !{i32 1, !"wchar_size", i32 4}
!1 = !{!"clang version 10.0.0-4ubuntu1 "}
